target datalayout = "e-m:e-p270:32:32-p271:32:32-p272:64:64-i64:64-i128:128-f80:128-n8:16:32:64-S128"
target triple = "x86_64-pc-linux-gnu"

%struct.AVFilterContext = type { ptr, ptr, ptr, ptr, ptr, i32, ptr, ptr, i32, ptr, ptr, i32, i32, ptr, ptr, ptr, ptr, i32, ptr, i32, i32 }
%struct.ShearContext = type { ptr, float, float, i32, [4 x i8], ptr, i32, i32, i32, %struct.FFDrawContext, %struct.FFDrawColor, i32, i32, [4 x i32], [4 x i32], [2 x ptr] }
%struct.FFDrawContext = type { ptr, i32, i32, [4 x i32], [4 x i8], [4 x i8], i8, i8, i32, i32, i32, [3 x [3 x double]] }
%struct.FFDrawColor = type { [4 x i8], [4 x %union.anon.2] }
%union.anon.2 = type { [4 x i32] }
%struct.ThreadData = type { ptr, ptr }
%struct.AVChannelLayout = type { i32, i32, %union.anon.1, ptr }
%union.anon.1 = type { i64 }
%struct.AVRational = type { i32, i32 }
%struct.AVFrame = type { [8 x ptr], [8 x i32], ptr, i32, i32, i32, i32, i32, %struct.AVRational, i64, i64, %struct.AVRational, i32, ptr, i32, i32, [8 x ptr], ptr, i32, ptr, i32, i32, i32, i32, i32, i32, i32, i64, ptr, i32, ptr, ptr, i64, i64, i64, i64, ptr, %struct.AVChannelLayout, i64 }

; Function Attrs: nounwind uwtable
define internal i32 @filter_slice_nn16(ptr noundef %0, ptr noundef %1, i32 noundef %2, i32 noundef %3) #1 {
  %5 = alloca ptr, align 8
  %6 = alloca ptr, align 8
  %7 = alloca i32, align 4
  %8 = alloca i32, align 4
  %9 = alloca ptr, align 8
  %10 = alloca ptr, align 8
  %11 = alloca ptr, align 8
  %12 = alloca ptr, align 8
  %13 = alloca float, align 4
  %14 = alloca float, align 4
  %15 = alloca i32, align 4
  %16 = alloca i32, align 4
  %17 = alloca i32, align 4
  %18 = alloca i32, align 4
  %19 = alloca i32, align 4
  %20 = alloca i32, align 4
  %21 = alloca i32, align 4
  %22 = alloca i32, align 4
  %23 = alloca i32, align 4
  %24 = alloca i32, align 4
  %25 = alloca i32, align 4
  %26 = alloca i32, align 4
  %27 = alloca ptr, align 8
  %28 = alloca ptr, align 8
  %29 = alloca i32, align 4
  %30 = alloca i32, align 4
  %31 = alloca i32, align 4
  %32 = alloca i32, align 4
  store ptr %0, ptr %5, align 8, !tbaa !4
  store ptr %1, ptr %6, align 8, !tbaa !52
  store i32 %2, ptr %7, align 4, !tbaa !32
  store i32 %3, ptr %8, align 4, !tbaa !32
  call void @llvm.lifetime.start.p0(i64 8, ptr %9) #8
  %33 = load ptr, ptr %6, align 8, !tbaa !52
  store ptr %33, ptr %9, align 8, !tbaa !69
  call void @llvm.lifetime.start.p0(i64 8, ptr %10) #8
  %34 = load ptr, ptr %9, align 8, !tbaa !69
  %35 = getelementptr inbounds nuw %struct.ThreadData, ptr %34, i32 0, i32 0
  %36 = load ptr, ptr %35, align 8, !tbaa !48
  store ptr %36, ptr %10, align 8, !tbaa !35
  call void @llvm.lifetime.start.p0(i64 8, ptr %11) #8
  %37 = load ptr, ptr %9, align 8, !tbaa !69
  %38 = getelementptr inbounds nuw %struct.ThreadData, ptr %37, i32 0, i32 1
  %39 = load ptr, ptr %38, align 8, !tbaa !50
  store ptr %39, ptr %11, align 8, !tbaa !35
  call void @llvm.lifetime.start.p0(i64 8, ptr %12) #8
  %40 = load ptr, ptr %5, align 8, !tbaa !4
  %41 = getelementptr inbounds nuw %struct.AVFilterContext, ptr %40, i32 0, i32 9
  %42 = load ptr, ptr %41, align 8, !tbaa !9
  store ptr %42, ptr %12, align 8, !tbaa !22
  call void @llvm.lifetime.start.p0(i64 4, ptr %13) #8
  %43 = load ptr, ptr %12, align 8, !tbaa !22
  %44 = getelementptr inbounds nuw %struct.ShearContext, ptr %43, i32 0, i32 1
  %45 = load float, ptr %44, align 8, !tbaa !71
  store float %45, ptr %13, align 4, !tbaa !72
  call void @llvm.lifetime.start.p0(i64 4, ptr %14) #8
  %46 = load ptr, ptr %12, align 8, !tbaa !22
  %47 = getelementptr inbounds nuw %struct.ShearContext, ptr %46, i32 0, i32 2
  %48 = load float, ptr %47, align 4, !tbaa !73
  store float %48, ptr %14, align 4, !tbaa !72
  call void @llvm.lifetime.start.p0(i64 4, ptr %15) #8
  store i32 0, ptr %15, align 4, !tbaa !32
  br label %49

49:                                               ; preds = %252, %4
  %50 = load i32, ptr %15, align 4, !tbaa !32
  %51 = load ptr, ptr %12, align 8, !tbaa !22
  %52 = getelementptr inbounds nuw %struct.ShearContext, ptr %51, i32 0, i32 7
  %53 = load i32, ptr %52, align 4, !tbaa !56
  %54 = icmp slt i32 %50, %53
  br i1 %54, label %56, label %55

55:                                               ; preds = %49
  store i32 2, ptr %16, align 4
  call void @llvm.lifetime.end.p0(i64 4, ptr %15) #8
  br label %255

56:                                               ; preds = %49
  call void @llvm.lifetime.start.p0(i64 4, ptr %17) #8
  %57 = load i32, ptr %15, align 4, !tbaa !32
  %58 = icmp eq i32 %57, 1
  br i1 %58, label %62, label %59

59:                                               ; preds = %56
  %60 = load i32, ptr %15, align 4, !tbaa !32
  %61 = icmp eq i32 %60, 2
  br i1 %61, label %62, label %66

62:                                               ; preds = %59, %56
  %63 = load ptr, ptr %12, align 8, !tbaa !22
  %64 = getelementptr inbounds nuw %struct.ShearContext, ptr %63, i32 0, i32 11
  %65 = load i32, ptr %64, align 4, !tbaa !63
  br label %67

66:                                               ; preds = %59
  br label %67

67:                                               ; preds = %66, %62
  %68 = phi i32 [ %65, %62 ], [ 1, %66 ]
  store i32 %68, ptr %17, align 4, !tbaa !32
  call void @llvm.lifetime.start.p0(i64 4, ptr %18) #8
  %69 = load i32, ptr %15, align 4, !tbaa !32
  %70 = icmp eq i32 %69, 1
  br i1 %70, label %74, label %71

71:                                               ; preds = %67
  %72 = load i32, ptr %15, align 4, !tbaa !32
  %73 = icmp eq i32 %72, 2
  br i1 %73, label %74, label %78

74:                                               ; preds = %71, %67
  %75 = load ptr, ptr %12, align 8, !tbaa !22
  %76 = getelementptr inbounds nuw %struct.ShearContext, ptr %75, i32 0, i32 12
  %77 = load i32, ptr %76, align 8, !tbaa !65
  br label %79

78:                                               ; preds = %71
  br label %79

79:                                               ; preds = %78, %74
  %80 = phi i32 [ %77, %74 ], [ 1, %78 ]
  store i32 %80, ptr %18, align 4, !tbaa !32
  call void @llvm.lifetime.start.p0(i64 4, ptr %19) #8
  %81 = load ptr, ptr %12, align 8, !tbaa !22
  %82 = getelementptr inbounds nuw %struct.ShearContext, ptr %81, i32 0, i32 13
  %83 = load i32, ptr %15, align 4, !tbaa !32
  %84 = sext i32 %83 to i64
  %85 = getelementptr inbounds [4 x i32], ptr %82, i64 0, i64 %84
  %86 = load i32, ptr %85, align 4, !tbaa !32
  store i32 %86, ptr %19, align 4, !tbaa !32
  call void @llvm.lifetime.start.p0(i64 4, ptr %20) #8
  %87 = load ptr, ptr %12, align 8, !tbaa !22
  %88 = getelementptr inbounds nuw %struct.ShearContext, ptr %87, i32 0, i32 14
  %89 = load i32, ptr %15, align 4, !tbaa !32
  %90 = sext i32 %89 to i64
  %91 = getelementptr inbounds [4 x i32], ptr %88, i64 0, i64 %90
  %92 = load i32, ptr %91, align 4, !tbaa !32
  store i32 %92, ptr %20, align 4, !tbaa !32
  call void @llvm.lifetime.start.p0(i64 4, ptr %21) #8
  %93 = load i32, ptr %18, align 4, !tbaa !32
  %94 = sitofp i32 %93 to float
  %95 = load float, ptr %13, align 4, !tbaa !72
  %96 = fmul nsz float %94, %95
  %97 = load i32, ptr %20, align 4, !tbaa !32
  %98 = sitofp i32 %97 to float
  %99 = fmul nsz float %96, %98
  %100 = fmul nsz float %99, 5.000000e-01
  %101 = load i32, ptr %17, align 4, !tbaa !32
  %102 = sitofp i32 %101 to float
  %103 = fdiv nsz float %100, %102
  %104 = fptosi float %103 to i32
  store i32 %104, ptr %21, align 4, !tbaa !32
  call void @llvm.lifetime.start.p0(i64 4, ptr %22) #8
  %105 = load i32, ptr %17, align 4, !tbaa !32
  %106 = sitofp i32 %105 to float
  %107 = load float, ptr %14, align 4, !tbaa !72
  %108 = fmul nsz float %106, %107
  %109 = load i32, ptr %19, align 4, !tbaa !32
  %110 = sitofp i32 %109 to float
  %111 = fmul nsz float %108, %110
  %112 = fmul nsz float %111, 5.000000e-01
  %113 = load i32, ptr %18, align 4, !tbaa !32
  %114 = sitofp i32 %113 to float
  %115 = fdiv nsz float %112, %114
  %116 = fptosi float %115 to i32
  store i32 %116, ptr %22, align 4, !tbaa !32
  call void @llvm.lifetime.start.p0(i64 4, ptr %23) #8
  %117 = load i32, ptr %20, align 4, !tbaa !32
  %118 = load i32, ptr %7, align 4, !tbaa !32
  %119 = mul nsw i32 %117, %118
  %120 = load i32, ptr %8, align 4, !tbaa !32
  %121 = sdiv i32 %119, %120
  store i32 %121, ptr %23, align 4, !tbaa !32
  call void @llvm.lifetime.start.p0(i64 4, ptr %24) #8
  %122 = load i32, ptr %20, align 4, !tbaa !32
  %123 = load i32, ptr %7, align 4, !tbaa !32
  %124 = add nsw i32 %123, 1
  %125 = mul nsw i32 %122, %124
  %126 = load i32, ptr %8, align 4, !tbaa !32
  %127 = sdiv i32 %125, %126
  store i32 %127, ptr %24, align 4, !tbaa !32
  call void @llvm.lifetime.start.p0(i64 4, ptr %25) #8
  %128 = load ptr, ptr %10, align 8, !tbaa !35
  %129 = getelementptr inbounds nuw %struct.AVFrame, ptr %128, i32 0, i32 1
  %130 = load i32, ptr %15, align 4, !tbaa !32
  %131 = sext i32 %130 to i64
  %132 = getelementptr inbounds [8 x i32], ptr %129, i64 0, i64 %131
  %133 = load i32, ptr %132, align 4, !tbaa !32
  %134 = sext i32 %133 to i64
  %135 = udiv i64 %134, 2
  %136 = trunc i64 %135 to i32
  store i32 %136, ptr %25, align 4, !tbaa !32
  call void @llvm.lifetime.start.p0(i64 4, ptr %26) #8
  %137 = load ptr, ptr %11, align 8, !tbaa !35
  %138 = getelementptr inbounds nuw %struct.AVFrame, ptr %137, i32 0, i32 1
  %139 = load i32, ptr %15, align 4, !tbaa !32
  %140 = sext i32 %139 to i64
  %141 = getelementptr inbounds [8 x i32], ptr %138, i64 0, i64 %140
  %142 = load i32, ptr %141, align 4, !tbaa !32
  %143 = sext i32 %142 to i64
  %144 = udiv i64 %143, 2
  %145 = trunc i64 %144 to i32
  store i32 %145, ptr %26, align 4, !tbaa !32
  call void @llvm.lifetime.start.p0(i64 8, ptr %27) #8
  %146 = load ptr, ptr %10, align 8, !tbaa !35
  %147 = getelementptr inbounds nuw %struct.AVFrame, ptr %146, i32 0, i32 0
  %148 = load i32, ptr %15, align 4, !tbaa !32
  %149 = sext i32 %148 to i64
  %150 = getelementptr inbounds [8 x ptr], ptr %147, i64 0, i64 %149
  %151 = load ptr, ptr %150, align 8, !tbaa !31
  store ptr %151, ptr %27, align 8, !tbaa !79
  call void @llvm.lifetime.start.p0(i64 8, ptr %28) #8
  %152 = load ptr, ptr %11, align 8, !tbaa !35
  %153 = getelementptr inbounds nuw %struct.AVFrame, ptr %152, i32 0, i32 0
  %154 = load i32, ptr %15, align 4, !tbaa !32
  %155 = sext i32 %154 to i64
  %156 = getelementptr inbounds [8 x ptr], ptr %153, i64 0, i64 %155
  %157 = load ptr, ptr %156, align 8, !tbaa !31
  %158 = load i32, ptr %23, align 4, !tbaa !32
  %159 = load i32, ptr %26, align 4, !tbaa !32
  %160 = mul nsw i32 %158, %159
  %161 = sext i32 %160 to i64
  %162 = getelementptr inbounds i16, ptr %157, i64 %161
  store ptr %162, ptr %28, align 8, !tbaa !79
  call void @llvm.lifetime.start.p0(i64 4, ptr %29) #8
  %163 = load i32, ptr %23, align 4, !tbaa !32
  store i32 %163, ptr %29, align 4, !tbaa !32
  br label %164

164:                                              ; preds = %248, %79
  %165 = load i32, ptr %29, align 4, !tbaa !32
  %166 = load i32, ptr %24, align 4, !tbaa !32
  %167 = icmp slt i32 %165, %166
  br i1 %167, label %169, label %168

168:                                              ; preds = %164
  store i32 5, ptr %16, align 4
  call void @llvm.lifetime.end.p0(i64 4, ptr %29) #8
  br label %251

169:                                              ; preds = %164
  call void @llvm.lifetime.start.p0(i64 4, ptr %30) #8
  store i32 0, ptr %30, align 4, !tbaa !32
  br label %170

170:                                              ; preds = %240, %169
  %171 = load i32, ptr %30, align 4, !tbaa !32
  %172 = load i32, ptr %19, align 4, !tbaa !32
  %173 = icmp slt i32 %171, %172
  br i1 %173, label %175, label %174

174:                                              ; preds = %170
  store i32 8, ptr %16, align 4
  call void @llvm.lifetime.end.p0(i64 4, ptr %30) #8
  br label %243

175:                                              ; preds = %170
  call void @llvm.lifetime.start.p0(i64 4, ptr %31) #8
  %176 = load i32, ptr %30, align 4, !tbaa !32
  %177 = sitofp i32 %176 to float
  %178 = load i32, ptr %18, align 4, !tbaa !32
  %179 = sitofp i32 %178 to float
  %180 = load float, ptr %13, align 4, !tbaa !72
  %181 = fmul nsz float %179, %180
  %182 = load i32, ptr %29, align 4, !tbaa !32
  %183 = sitofp i32 %182 to float
  %184 = fmul nsz float %181, %183
  %185 = load i32, ptr %17, align 4, !tbaa !32
  %186 = sitofp i32 %185 to float
  %187 = fdiv nsz float %184, %186
  %188 = fadd nsz float %177, %187
  %189 = load i32, ptr %21, align 4, !tbaa !32
  %190 = sitofp i32 %189 to float
  %191 = fsub nsz float %188, %190
  %192 = fptosi float %191 to i32
  store i32 %192, ptr %31, align 4, !tbaa !32
  call void @llvm.lifetime.start.p0(i64 4, ptr %32) #8
  %193 = load i32, ptr %29, align 4, !tbaa !32
  %194 = sitofp i32 %193 to float
  %195 = load i32, ptr %17, align 4, !tbaa !32
  %196 = sitofp i32 %195 to float
  %197 = load float, ptr %14, align 4, !tbaa !72
  %198 = fmul nsz float %196, %197
  %199 = load i32, ptr %30, align 4, !tbaa !32
  %200 = sitofp i32 %199 to float
  %201 = fmul nsz float %198, %200
  %202 = load i32, ptr %18, align 4, !tbaa !32
  %203 = sitofp i32 %202 to float
  %204 = fdiv nsz float %201, %203
  %205 = fadd nsz float %194, %204
  %206 = load i32, ptr %22, align 4, !tbaa !32
  %207 = sitofp i32 %206 to float
  %208 = fsub nsz float %205, %207
  %209 = fptosi float %208 to i32
  store i32 %209, ptr %32, align 4, !tbaa !32
  %210 = load i32, ptr %31, align 4, !tbaa !32
  %211 = icmp sge i32 %210, 0
  br i1 %211, label %212, label %239

212:                                              ; preds = %175
  %213 = load i32, ptr %31, align 4, !tbaa !32
  %214 = load i32, ptr %19, align 4, !tbaa !32
  %215 = sub nsw i32 %214, 1
  %216 = icmp slt i32 %213, %215
  br i1 %216, label %217, label %239

217:                                              ; preds = %212
  %218 = load i32, ptr %32, align 4, !tbaa !32
  %219 = icmp sge i32 %218, 0
  br i1 %219, label %220, label %239

220:                                              ; preds = %217
  %221 = load i32, ptr %32, align 4, !tbaa !32
  %222 = load i32, ptr %20, align 4, !tbaa !32
  %223 = sub nsw i32 %222, 1
  %224 = icmp slt i32 %221, %223
  br i1 %224, label %225, label %239

225:                                              ; preds = %220
  %226 = load ptr, ptr %27, align 8, !tbaa !79
  %227 = load i32, ptr %32, align 4, !tbaa !32
  %228 = load i32, ptr %25, align 4, !tbaa !32
  %229 = mul nsw i32 %227, %228
  %230 = load i32, ptr %31, align 4, !tbaa !32
  %231 = add nsw i32 %229, %230
  %232 = sext i32 %231 to i64
  %233 = getelementptr inbounds i16, ptr %226, i64 %232
  %234 = load i16, ptr %233, align 2, !tbaa !81
  %235 = load ptr, ptr %28, align 8, !tbaa !79
  %236 = load i32, ptr %30, align 4, !tbaa !32
  %237 = sext i32 %236 to i64
  %238 = getelementptr inbounds i16, ptr %235, i64 %237
  store i16 %234, ptr %238, align 2, !tbaa !81
  br label %239

239:                                              ; preds = %225, %220, %217, %212, %175
  call void @llvm.lifetime.end.p0(i64 4, ptr %32) #8
  call void @llvm.lifetime.end.p0(i64 4, ptr %31) #8
  br label %240

240:                                              ; preds = %239
  %241 = load i32, ptr %30, align 4, !tbaa !32
  %242 = add nsw i32 %241, 1
  store i32 %242, ptr %30, align 4, !tbaa !32
  br label %170, !llvm.loop !83

243:                                              ; preds = %174
  %244 = load i32, ptr %26, align 4, !tbaa !32
  %245 = load ptr, ptr %28, align 8, !tbaa !79
  %246 = sext i32 %244 to i64
  %247 = getelementptr inbounds i16, ptr %245, i64 %246
  store ptr %247, ptr %28, align 8, !tbaa !79
  br label %248

248:                                              ; preds = %243
  %249 = load i32, ptr %29, align 4, !tbaa !32
  %250 = add nsw i32 %249, 1
  store i32 %250, ptr %29, align 4, !tbaa !32
  br label %164, !llvm.loop !84

251:                                              ; preds = %168
  call void @llvm.lifetime.end.p0(i64 8, ptr %28) #8
  call void @llvm.lifetime.end.p0(i64 8, ptr %27) #8
  call void @llvm.lifetime.end.p0(i64 4, ptr %26) #8
  call void @llvm.lifetime.end.p0(i64 4, ptr %25) #8
  call void @llvm.lifetime.end.p0(i64 4, ptr %24) #8
  call void @llvm.lifetime.end.p0(i64 4, ptr %23) #8
  call void @llvm.lifetime.end.p0(i64 4, ptr %22) #8
  call void @llvm.lifetime.end.p0(i64 4, ptr %21) #8
  call void @llvm.lifetime.end.p0(i64 4, ptr %20) #8
  call void @llvm.lifetime.end.p0(i64 4, ptr %19) #8
  call void @llvm.lifetime.end.p0(i64 4, ptr %18) #8
  call void @llvm.lifetime.end.p0(i64 4, ptr %17) #8
  br label %252

252:                                              ; preds = %251
  %253 = load i32, ptr %15, align 4, !tbaa !32
  %254 = add nsw i32 %253, 1
  store i32 %254, ptr %15, align 4, !tbaa !32
  br label %49, !llvm.loop !85

255:                                              ; preds = %55
  store i32 1, ptr %16, align 4
  call void @llvm.lifetime.end.p0(i64 4, ptr %14) #8
  call void @llvm.lifetime.end.p0(i64 4, ptr %13) #8
  call void @llvm.lifetime.end.p0(i64 8, ptr %12) #8
  call void @llvm.lifetime.end.p0(i64 8, ptr %11) #8
  call void @llvm.lifetime.end.p0(i64 8, ptr %10) #8
  call void @llvm.lifetime.end.p0(i64 8, ptr %9) #8
  ret i32 0
}