; Function Attrs: nofree norecurse nosync nounwind memory(readwrite, inaccessiblemem: none) uwtable
define internal noundef i32 @filter_slice_nn16(ptr noundef readonly captures(none) %0, ptr noundef readonly captures(none) %1, i32 noundef %2, i32 noundef %3) #5 {
  %5 = load ptr, ptr %1, align 8, !tbaa !43
  %6 = getelementptr inbounds nuw i8, ptr %1, i64 8
  %7 = load ptr, ptr %6, align 8, !tbaa !45
  %8 = getelementptr inbounds nuw i8, ptr %0, i64 72
  %9 = load ptr, ptr %8, align 8, !tbaa !4
  %10 = getelementptr inbounds nuw i8, ptr %9, i64 8
  %11 = load float, ptr %10, align 8, !tbaa !64
  %12 = getelementptr inbounds nuw i8, ptr %9, i64 12
  %13 = load float, ptr %12, align 4, !tbaa !65
  %14 = getelementptr inbounds nuw i8, ptr %9, i64 36
  %15 = load i32, ptr %14, align 4, !tbaa !51
  %16 = icmp sgt i32 %15, 0
  br i1 %16, label %.lr.ph, label %._crit_edge

.lr.ph:                                           ; preds = %4
  %17 = getelementptr inbounds nuw i8, ptr %9, i64 244
  %18 = getelementptr inbounds nuw i8, ptr %9, i64 248
  %19 = getelementptr inbounds nuw i8, ptr %9, i64 252
  %20 = getelementptr inbounds nuw i8, ptr %9, i64 268
  %21 = add nsw i32 %2, 1
  %22 = getelementptr inbounds nuw i8, ptr %5, i64 64
  %23 = getelementptr inbounds nuw i8, ptr %7, i64 64
  %wide.trip.count99 = zext nneg i32 %15 to i64
  br label %24

._crit_edge:                                      ; preds = %._crit_edge91, %4
  ret i32 0

24:                                               ; preds = %.lr.ph, %._crit_edge91
  %indvars.iv96 = phi i64 [ 0, %.lr.ph ], [ %indvars.iv.next97, %._crit_edge91 ]
  %25 = trunc i64 %indvars.iv96 to i32
  %26 = add i32 %25, -1
  %or.cond = icmp ult i32 %26, 2
  br i1 %or.cond, label %27, label %32

27:                                               ; preds = %24
  %28 = load i32, ptr %17, align 4, !tbaa !58
  %29 = sitofp i32 %28 to float
  %30 = load i32, ptr %18, align 8, !tbaa !60
  %31 = sitofp i32 %30 to float
  br label %32

32:                                               ; preds = %24, %27
  %33 = phi float [ %29, %27 ], [ 1.000000e+00, %24 ]
  %34 = phi float [ %31, %27 ], [ 1.000000e+00, %24 ]
  %35 = getelementptr inbounds nuw [4 x i32], ptr %19, i64 0, i64 %indvars.iv96
  %36 = load i32, ptr %35, align 4, !tbaa !48
  %37 = getelementptr inbounds nuw [4 x i32], ptr %20, i64 0, i64 %indvars.iv96
  %38 = load i32, ptr %37, align 4, !tbaa !48
  %39 = fmul nsz float %11, %34
  %40 = fmul nsz float %13, %33
  %41 = mul nsw i32 %38, %2
  %42 = sdiv i32 %41, %3
  %43 = mul nsw i32 %38, %21
  %44 = sdiv i32 %43, %3
  %45 = getelementptr inbounds nuw [8 x i32], ptr %22, i64 0, i64 %indvars.iv96
  %46 = load i32, ptr %45, align 4, !tbaa !48
  %47 = ashr i32 %46, 1
  %48 = getelementptr inbounds nuw [8 x ptr], ptr %5, i64 0, i64 %indvars.iv96
  %49 = load ptr, ptr %48, align 8, !tbaa !66
  %50 = icmp slt i32 %42, %44
  br i1 %50, label %.preheader.lr.ph, label %._crit_edge91

.preheader.lr.ph:                                 ; preds = %32
  %51 = getelementptr inbounds nuw [8 x i32], ptr %23, i64 0, i64 %indvars.iv96
  %52 = load i32, ptr %51, align 4, !tbaa !48
  %53 = ashr i32 %52, 1
  %54 = sitofp i32 %36 to float
  %55 = fmul nsz float %40, %54
  %56 = fmul nsz float %55, 5.000000e-01
  %57 = fdiv nsz float %56, %34
  %58 = fptosi float %57 to i32
  %59 = sitofp i32 %38 to float
  %60 = fmul nsz float %39, %59
  %61 = fmul nsz float %60, 5.000000e-01
  %62 = fdiv nsz float %61, %33
  %63 = fptosi float %62 to i32
  %64 = icmp sgt i32 %36, 0
  %65 = sitofp i32 %63 to float
  %66 = sitofp i32 %58 to float
  %67 = add nsw i32 %36, -1
  %68 = add nsw i32 %38, -1
  %69 = sext i32 %53 to i64
  br i1 %64, label %.preheader.us.preheader, label %._crit_edge91

.preheader.us.preheader:                          ; preds = %.preheader.lr.ph
  %70 = getelementptr inbounds nuw [8 x ptr], ptr %7, i64 0, i64 %indvars.iv96
  %71 = load ptr, ptr %70, align 8, !tbaa !66
  %72 = mul nsw i32 %53, %42
  %73 = sext i32 %72 to i64
  %74 = getelementptr inbounds i16, ptr %71, i64 %73
  %wide.trip.count = zext nneg i32 %36 to i64
  br label %.preheader.us

.preheader.us:                                    ; preds = %.preheader.us.preheader, %._crit_edge.us
  %.08190.us = phi i32 [ %103, %._crit_edge.us ], [ %42, %.preheader.us.preheader ]
  %.08289.us = phi ptr [ %102, %._crit_edge.us ], [ %74, %.preheader.us.preheader ]
  %75 = sitofp i32 %.08190.us to float
  %76 = fmul nsz float %39, %75
  %77 = fdiv nsz float %76, %33
  br label %78

78:                                               ; preds = %.preheader.us, %101
  %indvars.iv = phi i64 [ 0, %.preheader.us ], [ %indvars.iv.next, %101 ]
  %79 = trunc nuw nsw i64 %indvars.iv to i32
  %80 = uitofp nneg i32 %79 to float
  %81 = fadd nsz float %77, %80
  %82 = fsub nsz float %81, %65
  %83 = fptosi float %82 to i32
  %84 = fmul nsz float %40, %80
  %85 = fdiv nsz float %84, %34
  %86 = fadd nsz float %85, %75
  %87 = fsub nsz float %86, %66
  %88 = fptosi float %87 to i32
  %89 = icmp sgt i32 %83, -1
  br i1 %89, label %90, label %101

90:                                               ; preds = %78
  %91 = icmp sgt i32 %67, %83
  %92 = icmp sgt i32 %88, -1
  %or.cond5.us = select i1 %91, i1 %92, i1 false
  %93 = icmp sgt i32 %68, %88
  %or.cond87.us = select i1 %or.cond5.us, i1 %93, i1 false
  br i1 %or.cond87.us, label %94, label %101

94:                                               ; preds = %90
  %95 = mul nsw i32 %47, %88
  %96 = add nsw i32 %95, %83
  %97 = sext i32 %96 to i64
  %98 = getelementptr inbounds i16, ptr %49, i64 %97
  %99 = load i16, ptr %98, align 2, !tbaa !72
  %100 = getelementptr inbounds nuw i16, ptr %.08289.us, i64 %indvars.iv
  store i16 %99, ptr %100, align 2, !tbaa !72
  br label %101

101:                                              ; preds = %94, %90, %78
  %indvars.iv.next = add nuw nsw i64 %indvars.iv, 1
  %exitcond.not = icmp eq i64 %indvars.iv.next, %wide.trip.count
  br i1 %exitcond.not, label %._crit_edge.us, label %78, !llvm.loop !74

._crit_edge.us:                                   ; preds = %101
  %102 = getelementptr inbounds i16, ptr %.08289.us, i64 %69
  %103 = add nsw i32 %.08190.us, 1
  %exitcond95.not = icmp eq i32 %103, %44
  br i1 %exitcond95.not, label %._crit_edge91, label %.preheader.us, !llvm.loop !75

._crit_edge91:                                    ; preds = %._crit_edge.us, %.preheader.lr.ph, %32
  %indvars.iv.next97 = add nuw nsw i64 %indvars.iv96, 1
  %exitcond100.not = icmp eq i64 %indvars.iv.next97, %wide.trip.count99
  br i1 %exitcond100.not, label %._crit_edge, label %24, !llvm.loop !76
}